target datalayout = "e-m:e-p270:32:32-p271:32:32-p272:64:64-i64:64-i128:128-f80:128-n8:16:32:64-S128"
target triple = "x86_64-pc-linux-gnu"

%struct._extcap_complex = type { i32, ptr }
%struct._extcap_arg = type { i32, ptr, ptr, ptr, ptr, ptr, i8, i8, i8, i8, ptr, ptr, i32, ptr, ptr, ptr, ptr, ptr, ptr }

; Function Attrs: null_pointer_is_valid sspstrong uwtable
define hidden zeroext i1 @extcap_compare_is_default(ptr noundef %0, ptr noundef %1) #0 {
  %3 = alloca i1, align 1
  %4 = alloca ptr, align 8
  %5 = alloca ptr, align 8
  store ptr %0, ptr %4, align 8
  store ptr %1, ptr %5, align 8
  %6 = load ptr, ptr %4, align 8
  %7 = icmp eq ptr %6, null
  br i1 %7, label %16, label %8

8:                                                ; preds = %2
  %9 = load ptr, ptr %4, align 8
  %10 = getelementptr inbounds nuw %struct._extcap_arg, ptr %9, i32 0, i32 15
  %11 = load ptr, ptr %10, align 8
  %12 = icmp eq ptr %11, null
  br i1 %12, label %16, label %13

13:                                               ; preds = %8
  %14 = load ptr, ptr %5, align 8
  %15 = icmp eq ptr %14, null
  br i1 %15, label %16, label %17

16:                                               ; preds = %13, %8, %2
  store i1 false, ptr %3, align 1
  br label %30

17:                                               ; preds = %13
  %18 = load ptr, ptr %4, align 8
  %19 = getelementptr inbounds nuw %struct._extcap_arg, ptr %18, i32 0, i32 15
  %20 = load ptr, ptr %19, align 8
  %21 = getelementptr inbounds nuw %struct._extcap_complex, ptr %20, i32 0, i32 1
  %22 = load ptr, ptr %21, align 8
  %23 = load ptr, ptr %5, align 8
  %24 = getelementptr inbounds nuw %struct._extcap_complex, ptr %23, i32 0, i32 1
  %25 = load ptr, ptr %24, align 8
  %26 = call i32 @g_strcmp0(ptr noundef %22, ptr noundef %25)
  %27 = icmp eq i32 %26, 0
  br i1 %27, label %28, label %29

28:                                               ; preds = %17
  store i1 true, ptr %3, align 1
  br label %30

29:                                               ; preds = %17
  store i1 false, ptr %3, align 1
  br label %30

30:                                               ; preds = %29, %28, %16
  %31 = load i1, ptr %3, align 1
  ret i1 %31
}