; Function Attrs: null_pointer_is_valid sspstrong uwtable
define hidden zeroext i1 @extcap_compare_is_default(ptr noundef readonly captures(address_is_null) %0, ptr noundef readonly captures(address_is_null) %1) local_unnamed_addr #0 {
  %3 = icmp eq ptr %0, null
  br i1 %3, label %16, label %4

4:                                                ; preds = %2
  %5 = getelementptr inbounds nuw i8, ptr %0, i64 96
  %6 = load ptr, ptr %5, align 8
  %7 = icmp eq ptr %6, null
  %8 = icmp eq ptr %1, null
  %or.cond = or i1 %8, %7
  br i1 %or.cond, label %16, label %9

9:                                                ; preds = %4
  %10 = getelementptr inbounds nuw i8, ptr %6, i64 8
  %11 = load ptr, ptr %10, align 8
  %12 = getelementptr inbounds nuw i8, ptr %1, i64 8
  %13 = load ptr, ptr %12, align 8
  %14 = tail call i32 @g_strcmp0(ptr noundef %11, ptr noundef %13)
  %15 = icmp eq i32 %14, 0
  br label %16

16:                                               ; preds = %9, %2, %4
  %.0 = phi i1 [ false, %4 ], [ false, %2 ], [ %15, %9 ]
  ret i1 %.0
}